target datalayout = "e-m:e-p270:32:32-p271:32:32-p272:64:64-i64:64-i128:128-f80:128-n8:16:32:64-S128"
target triple = "x86_64-pc-linux-gnu"

%struct.AVRational = type { i32, i32 }
%struct.AVPacket = type { ptr, i64, i64, ptr, i32, i32, i32, ptr, i32, i64, i64, ptr, ptr, %struct.AVRational }
%struct.AVPacketSideData = type { ptr, i64, i32 }

; Function Attrs: nounwind uwtable
define ptr @av_packet_get_side_data(ptr noundef %0, i32 noundef %1, ptr noundef %2) #0 {
  %4 = alloca ptr, align 8
  %5 = alloca ptr, align 8
  %6 = alloca i32, align 4
  %7 = alloca ptr, align 8
  %8 = alloca i32, align 4
  %9 = alloca i32, align 4
  store ptr %0, ptr %5, align 8, !tbaa !4
  store i32 %1, ptr %6, align 4, !tbaa !28
  store ptr %2, ptr %7, align 8, !tbaa !53
  call void @llvm.lifetime.start.p0(i64 4, ptr %8) #9
  store i32 0, ptr %8, align 4, !tbaa !28
  br label %10

10:                                               ; preds = %50, %3
  %11 = load i32, ptr %8, align 4, !tbaa !28
  %12 = load ptr, ptr %5, align 8, !tbaa !4
  %13 = getelementptr inbounds nuw %struct.AVPacket, ptr %12, i32 0, i32 8
  %14 = load i32, ptr %13, align 8, !tbaa !24
  %15 = icmp slt i32 %11, %14
  br i1 %15, label %16, label %53

16:                                               ; preds = %10
  %17 = load ptr, ptr %5, align 8, !tbaa !4
  %18 = getelementptr inbounds nuw %struct.AVPacket, ptr %17, i32 0, i32 7
  %19 = load ptr, ptr %18, align 8, !tbaa !23
  %20 = load i32, ptr %8, align 4, !tbaa !28
  %21 = sext i32 %20 to i64
  %22 = getelementptr inbounds %struct.AVPacketSideData, ptr %19, i64 %21
  %23 = getelementptr inbounds nuw %struct.AVPacketSideData, ptr %22, i32 0, i32 2
  %24 = load i32, ptr %23, align 8, !tbaa !48
  %25 = load i32, ptr %6, align 4, !tbaa !28
  %26 = icmp eq i32 %24, %25
  br i1 %26, label %27, label %49

27:                                               ; preds = %16
  %28 = load ptr, ptr %7, align 8, !tbaa !53
  %29 = icmp ne ptr %28, null
  br i1 %29, label %30, label %40

30:                                               ; preds = %27
  %31 = load ptr, ptr %5, align 8, !tbaa !4
  %32 = getelementptr inbounds nuw %struct.AVPacket, ptr %31, i32 0, i32 7
  %33 = load ptr, ptr %32, align 8, !tbaa !23
  %34 = load i32, ptr %8, align 4, !tbaa !28
  %35 = sext i32 %34 to i64
  %36 = getelementptr inbounds %struct.AVPacketSideData, ptr %33, i64 %35
  %37 = getelementptr inbounds nuw %struct.AVPacketSideData, ptr %36, i32 0, i32 1
  %38 = load i64, ptr %37, align 8, !tbaa !51
  %39 = load ptr, ptr %7, align 8, !tbaa !53
  store i64 %38, ptr %39, align 8, !tbaa !43
  br label %40

40:                                               ; preds = %30, %27
  %41 = load ptr, ptr %5, align 8, !tbaa !4
  %42 = getelementptr inbounds nuw %struct.AVPacket, ptr %41, i32 0, i32 7
  %43 = load ptr, ptr %42, align 8, !tbaa !23
  %44 = load i32, ptr %8, align 4, !tbaa !28
  %45 = sext i32 %44 to i64
  %46 = getelementptr inbounds %struct.AVPacketSideData, ptr %43, i64 %45
  %47 = getelementptr inbounds nuw %struct.AVPacketSideData, ptr %46, i32 0, i32 0
  %48 = load ptr, ptr %47, align 8, !tbaa !50
  store ptr %48, ptr %4, align 8
  store i32 1, ptr %9, align 4
  br label %59

49:                                               ; preds = %16
  br label %50

50:                                               ; preds = %49
  %51 = load i32, ptr %8, align 4, !tbaa !28
  %52 = add nsw i32 %51, 1
  store i32 %52, ptr %8, align 4, !tbaa !28
  br label %10, !llvm.loop !55

53:                                               ; preds = %10
  %54 = load ptr, ptr %7, align 8, !tbaa !53
  %55 = icmp ne ptr %54, null
  br i1 %55, label %56, label %58

56:                                               ; preds = %53
  %57 = load ptr, ptr %7, align 8, !tbaa !53
  store i64 0, ptr %57, align 8, !tbaa !43
  br label %58

58:                                               ; preds = %56, %53
  store ptr null, ptr %4, align 8
  store i32 1, ptr %9, align 4
  br label %59

59:                                               ; preds = %58, %40
  call void @llvm.lifetime.end.p0(i64 4, ptr %8) #9
  %60 = load ptr, ptr %4, align 8
  ret ptr %60
}

; Function Attrs: nounwind uwtable
define i32 @ff_side_data_set_encoder_stats(ptr noundef %0, i32 noundef %1, ptr noundef %2, i32 noundef %3, i32 noundef %4) #0 {
  %6 = alloca i32, align 4
  %7 = alloca ptr, align 8
  %8 = alloca i32, align 4
  %9 = alloca ptr, align 8
  %10 = alloca i32, align 4
  %11 = alloca i32, align 4
  %12 = alloca ptr, align 8
  %13 = alloca i64, align 8
  %14 = alloca i32, align 4
  %15 = alloca i32, align 4
  store ptr %0, ptr %7, align 8, !tbaa !4
  store i32 %1, ptr %8, align 4, !tbaa !28
  store ptr %2, ptr %9, align 8, !tbaa !53
  store i32 %3, ptr %10, align 4, !tbaa !28
  store i32 %4, ptr %11, align 4, !tbaa !28
  call void @llvm.lifetime.start.p0(i64 8, ptr %12) #9
  call void @llvm.lifetime.start.p0(i64 8, ptr %13) #9
  call void @llvm.lifetime.start.p0(i64 4, ptr %14) #9
  %16 = load ptr, ptr %7, align 8, !tbaa !4
  %17 = call ptr @av_packet_get_side_data(ptr noundef %16, i32 noundef 8, ptr noundef %13)
  store ptr %17, ptr %12, align 8, !tbaa !42
  %18 = load ptr, ptr %12, align 8, !tbaa !42
  %19 = icmp ne ptr %18, null
  br i1 %19, label %28, label %20

20:                                               ; preds = %5
  %21 = load i32, ptr %10, align 4, !tbaa !28
  %22 = mul nsw i32 8, %21
  %23 = add nsw i32 8, %22
  %24 = sext i32 %23 to i64
  store i64 %24, ptr %13, align 8, !tbaa !43
  %25 = load ptr, ptr %7, align 8, !tbaa !4
  %26 = load i64, ptr %13, align 8, !tbaa !43
  %27 = call ptr @av_packet_new_side_data(ptr noundef %25, i32 noundef 8, i64 noundef %26)
  store ptr %27, ptr %12, align 8, !tbaa !42
  br label %28

28:                                               ; preds = %20, %5
  %29 = load ptr, ptr %12, align 8, !tbaa !42
  %30 = icmp ne ptr %29, null
  br i1 %30, label %31, label %38

31:                                               ; preds = %28
  %32 = load i64, ptr %13, align 8, !tbaa !43
  %33 = load i32, ptr %10, align 4, !tbaa !28
  %34 = mul nsw i32 8, %33
  %35 = add nsw i32 8, %34
  %36 = sext i32 %35 to i64
  %37 = icmp ult i64 %32, %36
  br i1 %37, label %38, label %39

38:                                               ; preds = %31, %28
  store i32 -12, ptr %6, align 4
  store i32 1, ptr %15, align 4
  br label %70

39:                                               ; preds = %31
  %40 = load i32, ptr %8, align 4, !tbaa !28
  %41 = load ptr, ptr %12, align 8, !tbaa !42
  store i32 %40, ptr %41, align 1, !tbaa !68
  %42 = load i32, ptr %11, align 4, !tbaa !28
  %43 = trunc i32 %42 to i8
  %44 = load ptr, ptr %12, align 8, !tbaa !42
  %45 = getelementptr inbounds i8, ptr %44, i64 4
  store i8 %43, ptr %45, align 1, !tbaa !68
  %46 = load i32, ptr %10, align 4, !tbaa !28
  %47 = trunc i32 %46 to i8
  %48 = load ptr, ptr %12, align 8, !tbaa !42
  %49 = getelementptr inbounds i8, ptr %48, i64 5
  store i8 %47, ptr %49, align 1, !tbaa !68
  store i32 0, ptr %14, align 4, !tbaa !28
  br label %50

50:                                               ; preds = %66, %39
  %51 = load i32, ptr %14, align 4, !tbaa !28
  %52 = load i32, ptr %10, align 4, !tbaa !28
  %53 = icmp slt i32 %51, %52
  br i1 %53, label %54, label %69

54:                                               ; preds = %50
  %55 = load ptr, ptr %9, align 8, !tbaa !53
  %56 = load i32, ptr %14, align 4, !tbaa !28
  %57 = sext i32 %56 to i64
  %58 = getelementptr inbounds i64, ptr %55, i64 %57
  %59 = load i64, ptr %58, align 8, !tbaa !43
  %60 = load ptr, ptr %12, align 8, !tbaa !42
  %61 = getelementptr inbounds i8, ptr %60, i64 8
  %62 = load i32, ptr %14, align 4, !tbaa !28
  %63 = mul nsw i32 8, %62
  %64 = sext i32 %63 to i64
  %65 = getelementptr inbounds i8, ptr %61, i64 %64
  store i64 %59, ptr %65, align 1, !tbaa !68
  br label %66

66:                                               ; preds = %54
  %67 = load i32, ptr %14, align 4, !tbaa !28
  %68 = add nsw i32 %67, 1
  store i32 %68, ptr %14, align 4, !tbaa !28
  br label %50, !llvm.loop !84

69:                                               ; preds = %50
  store i32 0, ptr %6, align 4
  store i32 1, ptr %15, align 4
  br label %70

70:                                               ; preds = %69, %38
  call void @llvm.lifetime.end.p0(i64 4, ptr %14) #9
  call void @llvm.lifetime.end.p0(i64 8, ptr %13) #9
  call void @llvm.lifetime.end.p0(i64 8, ptr %12) #9
  %71 = load i32, ptr %6, align 4
  ret i32 %71
}