; Function Attrs: nounwind uwtable
define range(i32 -12, 1) i32 @ff_side_data_set_encoder_stats(ptr noundef captures(none) %0, i32 noundef %1, ptr noundef readonly captures(none) %2, i32 noundef %3, i32 noundef %4) local_unnamed_addr #3 {
  %6 = getelementptr inbounds nuw i8, ptr %0, i64 56
  %7 = load i32, ptr %6, align 8, !tbaa !22
  %8 = icmp sgt i32 %7, 0
  br i1 %8, label %.lr.ph.i, label %av_packet_get_side_data.exit.thread

.lr.ph.i:                                         ; preds = %5
  %9 = getelementptr inbounds nuw i8, ptr %0, i64 48
  %10 = load ptr, ptr %9, align 8, !tbaa !21
  %wide.trip.count.i = zext nneg i32 %7 to i64
  br label %12

11:                                               ; preds = %12
  %indvars.iv.next.i = add nuw nsw i64 %indvars.iv.i, 1
  %exitcond.not.i = icmp eq i64 %indvars.iv.next.i, %wide.trip.count.i
  br i1 %exitcond.not.i, label %av_packet_get_side_data.exit.thread, label %12, !llvm.loop !40

12:                                               ; preds = %11, %.lr.ph.i
  %indvars.iv.i = phi i64 [ 0, %.lr.ph.i ], [ %indvars.iv.next.i, %11 ]
  %13 = getelementptr inbounds nuw %struct.AVPacketSideData, ptr %10, i64 %indvars.iv.i
  %14 = getelementptr inbounds nuw i8, ptr %13, i64 16
  %15 = load i32, ptr %14, align 8, !tbaa !35
  %16 = icmp eq i32 %15, 8
  br i1 %16, label %av_packet_get_side_data.exit, label %11

av_packet_get_side_data.exit:                     ; preds = %12
  %17 = load ptr, ptr %13, align 8, !tbaa !37
  %.not = icmp eq ptr %17, null
  br i1 %.not, label %av_packet_get_side_data.exit.thread, label %.thread

av_packet_get_side_data.exit.thread:              ; preds = %11, %5, %av_packet_get_side_data.exit
  %18 = shl nsw i32 %3, 3
  %19 = add nsw i32 %18, 8
  %20 = sext i32 %19 to i64
  %21 = tail call ptr @av_packet_new_side_data(ptr noundef %0, i32 noundef 8, i64 noundef %20)
  %.not22 = icmp eq ptr %21, null
  br i1 %.not22, label %.loopexit, label %.thread.thread

.thread:                                          ; preds = %av_packet_get_side_data.exit
  %22 = getelementptr inbounds nuw i8, ptr %13, i64 8
  %23 = load i64, ptr %22, align 8, !tbaa !38
  %.pre = shl nsw i32 %3, 3
  %.pre36 = add nsw i32 %.pre, 8
  %.pre38 = sext i32 %.pre36 to i64
  %24 = icmp ult i64 %23, %.pre38
  br i1 %24, label %.loopexit, label %.thread.thread

.thread.thread:                                   ; preds = %av_packet_get_side_data.exit.thread, %.thread
  %.0193143 = phi ptr [ %17, %.thread ], [ %21, %av_packet_get_side_data.exit.thread ]
  store i32 %1, ptr %.0193143, align 1, !tbaa !45
  %25 = trunc i32 %4 to i8
  %26 = getelementptr inbounds nuw i8, ptr %.0193143, i64 4
  store i8 %25, ptr %26, align 1, !tbaa !45
  %27 = trunc i32 %3 to i8
  %28 = getelementptr inbounds nuw i8, ptr %.0193143, i64 5
  store i8 %27, ptr %28, align 1, !tbaa !45
  %29 = icmp sgt i32 %3, 0
  br i1 %29, label %.lr.ph, label %.loopexit

.lr.ph:                                           ; preds = %.thread.thread
  %30 = getelementptr inbounds nuw i8, ptr %.0193143, i64 8
  %wide.trip.count = zext nneg i32 %3 to i64
  br label %31

31:                                               ; preds = %.lr.ph, %31
  %indvars.iv = phi i64 [ 0, %.lr.ph ], [ %indvars.iv.next, %31 ]
  %32 = getelementptr inbounds nuw i64, ptr %2, i64 %indvars.iv
  %33 = load i64, ptr %32, align 8, !tbaa !41
  %34 = shl nsw i64 %indvars.iv, 3
  %35 = getelementptr inbounds nuw i8, ptr %30, i64 %34
  store i64 %33, ptr %35, align 1, !tbaa !45
  %indvars.iv.next = add nuw nsw i64 %indvars.iv, 1
  %exitcond.not = icmp eq i64 %indvars.iv.next, %wide.trip.count
  br i1 %exitcond.not, label %.loopexit, label %31, !llvm.loop !63

.loopexit:                                        ; preds = %31, %.thread.thread, %av_packet_get_side_data.exit.thread, %.thread
  %.020 = phi i32 [ -12, %.thread ], [ -12, %av_packet_get_side_data.exit.thread ], [ 0, %.thread.thread ], [ 0, %31 ]
  ret i32 %.020
}